; Function Attrs: mustprogress nofree norecurse nosync nounwind willreturn memory(read, inaccessiblemem: none) uwtable
define i32 @lv_display_get_physical_horizontal_resolution(ptr noundef readonly %0) local_unnamed_addr #6 {
  %2 = icmp eq ptr %0, null
  br i1 %2, label %3, label %.thread

3:                                                ; preds = %1
  %4 = load ptr, ptr getelementptr inbounds nuw (i8, ptr @lv_global, i64 40), align 8, !tbaa !33
  %5 = icmp eq ptr %4, null
  br i1 %5, label %22, label %.thread

.thread:                                          ; preds = %1, %3
  %.014 = phi ptr [ %4, %3 ], [ %0, %1 ]
  %6 = getelementptr inbounds nuw i8, ptr %.014, i64 888
  %7 = load i8, ptr %6, align 8
  %8 = and i8 %7, 7
  switch i8 %8, label %16 [
    i8 1, label %9
    i8 3, label %9
  ]

9:                                                ; preds = %.thread, %.thread
  %10 = getelementptr inbounds nuw i8, ptr %.014, i64 12
  %11 = load i32, ptr %10, align 4, !tbaa !18
  %12 = icmp sgt i32 %11, 0
  br i1 %12, label %22, label %13

13:                                               ; preds = %9
  %14 = getelementptr inbounds nuw i8, ptr %.014, i64 4
  %15 = load i32, ptr %14, align 4, !tbaa !16
  br label %22

16:                                               ; preds = %.thread
  %17 = getelementptr inbounds nuw i8, ptr %.014, i64 8
  %18 = load i32, ptr %17, align 8, !tbaa !17
  %19 = icmp sgt i32 %18, 0
  br i1 %19, label %22, label %20

20:                                               ; preds = %16
  %21 = load i32, ptr %.014, align 8, !tbaa !3
  br label %22

22:                                               ; preds = %20, %16, %13, %9, %3
  %.09 = phi i32 [ 0, %3 ], [ %15, %13 ], [ %11, %9 ], [ %21, %20 ], [ %18, %16 ]
  ret i32 %.09
}